; Function Attrs: mustprogress nounwind uwtable
define dso_local void @_ZNK4llvm8DWARFDie11getDeclFileB5cxx11ENS_19DILineInfoSpecifier16FileLineInfoKindE(ptr dead_on_unwind noalias writable sret(%"class.std::__cxx11::basic_string") align 8 %0, ptr noundef nonnull align 8 dereferenceable(16) %1, i32 noundef %2) local_unnamed_addr #0 align 2 {
  %4 = alloca %"class.std::optional", align 8
  %5 = alloca i16, align 2
  %6 = alloca %"class.std::optional.116", align 8
  store i16 58, ptr %5, align 2
  call void @_ZNK4llvm8DWARFDie15findRecursivelyENS_8ArrayRefINS_5dwarf9AttributeEEE(ptr dead_on_unwind nonnull writable sret(%"class.std::optional") align 8 %4, ptr noundef nonnull align 8 dereferenceable(16) %1, ptr nonnull %5, i64 1)
  %7 = getelementptr inbounds nuw i8, ptr %4, i64 48
  %8 = load i8, ptr %7, align 8
  %9 = trunc i8 %8 to i1
  br i1 %9, label %10, label %19

10:                                               ; preds = %3
  call void @_ZNK4llvm14DWARFFormValue9getAsFileB5cxx11ENS_19DILineInfoSpecifier16FileLineInfoKindE(ptr dead_on_unwind nonnull writable sret(%"class.std::optional.116") align 8 %6, ptr noundef nonnull align 8 dereferenceable(48) %4, i32 noundef %2) #19
  %11 = getelementptr inbounds nuw i8, ptr %6, i64 32
  %12 = load i8, ptr %11, align 8
  %13 = trunc i8 %12 to i1
  br i1 %13, label %14, label %15

14:                                               ; preds = %10
  call void @_ZNSt7__cxx1112basic_stringIcSt11char_traitsIcESaIcEEC1ERKS4_(ptr noundef nonnull align 8 dereferenceable(32) %0, ptr noundef nonnull align 8 dereferenceable(32) %6) #19
  %.pre = load i8, ptr %11, align 8
  br label %15

15:                                               ; preds = %10, %14
  %16 = phi i8 [ %12, %10 ], [ %.pre, %14 ]
  %17 = trunc i8 %16 to i1
  br i1 %17, label %18, label %_ZNSt8optionalINSt7__cxx1112basic_stringIcSt11char_traitsIcESaIcEEEED2Ev.exit

18:                                               ; preds = %15
  store i8 0, ptr %11, align 8
  call void @_ZNSt7__cxx1112basic_stringIcSt11char_traitsIcESaIcEED1Ev(ptr noundef nonnull align 8 dereferenceable(40) %6) #19
  br label %_ZNSt8optionalINSt7__cxx1112basic_stringIcSt11char_traitsIcESaIcEEEED2Ev.exit

_ZNSt8optionalINSt7__cxx1112basic_stringIcSt11char_traitsIcESaIcEEEED2Ev.exit: ; preds = %15, %18
  br i1 %13, label %20, label %19

19:                                               ; preds = %_ZNSt8optionalINSt7__cxx1112basic_stringIcSt11char_traitsIcESaIcEEEED2Ev.exit, %3
  call void @_ZNSt7__cxx1112basic_stringIcSt11char_traitsIcESaIcEEC1Ev(ptr noundef nonnull align 8 dereferenceable(32) %0) #19
  br label %20

20:                                               ; preds = %_ZNSt8optionalINSt7__cxx1112basic_stringIcSt11char_traitsIcESaIcEEEED2Ev.exit, %19
  ret void
}